target datalayout = "e-m:e-p270:32:32-p271:32:32-p272:64:64-i64:64-i128:128-f80:128-n8:16:32:64-S128"
target triple = "x86_64-pc-linux-gnu"

%struct.slurm_conf_t = type { i64, ptr, i16, ptr, ptr, ptr, ptr, ptr, i16, ptr, ptr, ptr, ptr, ptr, ptr, ptr, i16, ptr, ptr, ptr, ptr, i16, ptr, ptr, ptr, i64, ptr, ptr, ptr, ptr, i16, ptr, ptr, i16, i32, ptr, i32, ptr, i32, i32, ptr, ptr, i64, i64, ptr, i16, i16, ptr, i32, i32, ptr, i32, ptr, i32, i16, i16, i16, ptr, i16, i16, ptr, ptr, i32, i16, i16, ptr, i32, i16, ptr, ptr, ptr, ptr, i16, ptr, ptr, ptr, ptr, i32, ptr, ptr, ptr, ptr, i16, i16, ptr, i32, i32, i32, i16, i16, ptr, ptr, i16, ptr, ptr, i32, i32, i32, i32, i32, i64, i32, i32, i16, ptr, ptr, i32, ptr, ptr, ptr, i16, i32, ptr, ptr, i16, ptr, ptr, i32, i16, ptr, ptr, ptr, ptr, i32, i32, i16, i16, i32, ptr, i16, ptr, i32, i32, i32, i32, i32, i32, ptr, i16, ptr, ptr, i32, i16, ptr, i32, i16, i16, ptr, ptr, ptr, i16, ptr, ptr, ptr, ptr, i16, i16, ptr, i16, ptr, i16, ptr, i16, ptr, i16, ptr, ptr, ptr, ptr, i16, ptr, ptr, ptr, i32, ptr, i32, ptr, ptr, i16, ptr, ptr, i32, i16, ptr, ptr, i16, i16, ptr, i16, ptr, ptr, ptr, i32, ptr, i16, i16, ptr, ptr, ptr, ptr, ptr, ptr, ptr, ptr, i16, i32, i16, ptr, ptr, ptr, ptr, i32, ptr, ptr, ptr, i16, ptr, ptr, ptr, i16, ptr, i16, ptr, i16, i16, ptr }
%struct.data_s = type { i32, i32, %union.anon }
%union.anon = type { ptr }

@slurm_conf = external global %struct.slurm_conf_t, align 8
@.str.4 = private unnamed_addr constant [23 x i8] c"DATA: %s: set %pD=null\00", align 1
@__func__.data_set_null = private unnamed_addr constant [14 x i8] c"data_set_null\00", align 1

; Function Attrs: nounwind uwtable
define internal void @_check_data_list_magic(ptr noundef %0) #0 {
  %2 = alloca ptr, align 8
  store ptr %0, ptr %2, align 8
  ret void
}

; Function Attrs: nounwind uwtable
define internal void @_check_magic(ptr noundef %0) #0 {
  %2 = alloca ptr, align 8
  store ptr %0, ptr %2, align 8
  %3 = load ptr, ptr %2, align 8
  %4 = icmp ne ptr %3, null
  br i1 %4, label %6, label %5

5:                                                ; preds = %1
  br label %29

6:                                                ; preds = %1
  %7 = load i64, ptr getelementptr inbounds nuw (%struct.slurm_conf_t, ptr @slurm_conf, i32 0, i32 42), align 8
  %8 = and i64 %7, 256
  %9 = icmp ne i64 %8, 0
  br i1 %9, label %10, label %29

10:                                               ; preds = %6
  %11 = load ptr, ptr %2, align 8
  %12 = getelementptr inbounds nuw %struct.data_s, ptr %11, i32 0, i32 1
  %13 = load i32, ptr %12, align 4
  %14 = icmp eq i32 %13, 65282
  br i1 %14, label %15, label %19

15:                                               ; preds = %10
  %16 = load ptr, ptr %2, align 8
  %17 = getelementptr inbounds nuw %struct.data_s, ptr %16, i32 0, i32 2
  %18 = load ptr, ptr %17, align 8
  call void @_check_data_list_magic(ptr noundef %18)
  br label %19

19:                                               ; preds = %15, %10
  %20 = load ptr, ptr %2, align 8
  %21 = getelementptr inbounds nuw %struct.data_s, ptr %20, i32 0, i32 1
  %22 = load i32, ptr %21, align 4
  %23 = icmp eq i32 %22, 65283
  br i1 %23, label %24, label %28

24:                                               ; preds = %19
  %25 = load ptr, ptr %2, align 8
  %26 = getelementptr inbounds nuw %struct.data_s, ptr %25, i32 0, i32 2
  %27 = load ptr, ptr %26, align 8
  call void @_check_data_list_magic(ptr noundef %27)
  br label %28

28:                                               ; preds = %24, %19
  br label %29

29:                                               ; preds = %5, %28, %6
  ret void
}

; Function Attrs: nounwind uwtable
define dso_local ptr @data_set_null(ptr noundef %0) #0 {
  %2 = alloca ptr, align 8
  %3 = alloca ptr, align 8
  store ptr %0, ptr %3, align 8
  %4 = load ptr, ptr %3, align 8
  call void @_check_magic(ptr noundef %4)
  %5 = load ptr, ptr %3, align 8
  %6 = icmp ne ptr %5, null
  br i1 %6, label %8, label %7

7:                                                ; preds = %1
  store ptr null, ptr %2, align 8
  br label %27

8:                                                ; preds = %1
  %9 = load ptr, ptr %3, align 8
  call void @_release(ptr noundef %9)
  %10 = load ptr, ptr %3, align 8
  %11 = getelementptr inbounds nuw %struct.data_s, ptr %10, i32 0, i32 1
  store i32 65281, ptr %11, align 4
  br label %12

12:                                               ; preds = %8
  %13 = load i64, ptr getelementptr inbounds nuw (%struct.slurm_conf_t, ptr @slurm_conf, i32 0, i32 42), align 8
  %14 = and i64 %13, 256
  %15 = icmp ne i64 %14, 0
  br i1 %15, label %16, label %24

16:                                               ; preds = %12
  br label %17

17:                                               ; preds = %16
  %18 = call i32 @get_log_level()
  %19 = icmp sge i32 %18, 4
  br i1 %19, label %20, label %22

20:                                               ; preds = %17
  %21 = load ptr, ptr %3, align 8
  call void (i32, ptr, ...) @log_var(i32 noundef 4, ptr noundef @.str.4, ptr noundef @__func__.data_set_null, ptr noundef %21)
  br label %22

22:                                               ; preds = %20, %17
  br label %23

23:                                               ; preds = %22
  br label %24

24:                                               ; preds = %23, %12
  br label %25

25:                                               ; preds = %24
  %26 = load ptr, ptr %3, align 8
  store ptr %26, ptr %2, align 8
  br label %27

27:                                               ; preds = %25, %7
  %28 = load ptr, ptr %2, align 8
  ret ptr %28
}