; Function Attrs: nounwind uwtable
define dso_local noundef ptr @data_set_null(ptr noundef returned %0) local_unnamed_addr #0 {
  %.not = icmp eq ptr %0, null
  br i1 %.not, label %10, label %2

2:                                                ; preds = %1
  tail call fastcc void @_release(ptr noundef nonnull %0)
  %3 = getelementptr inbounds nuw i8, ptr %0, i64 4
  store i32 65281, ptr %3, align 4
  %4 = load i64, ptr getelementptr inbounds nuw (i8, ptr @slurm_conf, i64 320), align 8
  %5 = and i64 %4, 256
  %.not8 = icmp eq i64 %5, 0
  br i1 %.not8, label %10, label %6

6:                                                ; preds = %2
  %7 = tail call i32 @get_log_level() #16
  %8 = icmp sgt i32 %7, 3
  br i1 %8, label %9, label %10

9:                                                ; preds = %6
  tail call void (i32, ptr, ...) @log_var(i32 noundef 4, ptr noundef nonnull @.str.4, ptr noundef nonnull @__func__.data_set_null, ptr noundef nonnull %0) #16
  br label %10

10:                                               ; preds = %9, %6, %2, %1
  ret ptr %0
}